; Function Attrs: mustprogress uwtable
define void @_ZN6GLArea12initializeGLEv(ptr noundef nonnull align 8 dereferenceable(1676) %0) unnamed_addr #9 align 2 {
  tail call void @_ZN9QGLWidget11makeCurrentEv(ptr noundef nonnull align 8 dereferenceable(48) %0)
  tail call void @glShadeModel(i32 noundef 7425)
  tail call void @glPixelStorei(i32 noundef 3330, i32 noundef 0)
  tail call void @glPixelStorei(i32 noundef 3333, i32 noundef 1)
  tail call void @glEnable(i32 noundef 2929)
  tail call void @glEnable(i32 noundef 2977)
  tail call void @glEnable(i32 noundef 16384)
  tail call void @glDisable(i32 noundef 16385)
  tail call void @glLightfv(i32 noundef 16385, i32 noundef 4609, ptr noundef nonnull @_ZZN6GLArea12initializeGLEvE12diffuseColor)
  %2 = getelementptr inbounds i8, ptr %0, i64 96
  store <4 x float> <float 0.000000e+00, float 0.000000e+00, float 0.000000e+00, float 1.000000e+00>, ptr %2, align 8
  %3 = getelementptr inbounds i8, ptr %0, i64 696
  store <4 x float> <float 0.000000e+00, float 0.000000e+00, float 0.000000e+00, float 1.000000e+00>, ptr %3, align 8
  tail call void @_ZN19GLExtensionsManager22initializeGLextensionsEv()
  ret void
}